target datalayout = "e-m:e-p270:32:32-p271:32:32-p272:64:64-i64:64-i128:128-f80:128-n8:16:32:64-S128"
target triple = "x86_64-pc-linux-gnu"

%struct.CVodeMemRec = type { ptr, double, ptr, ptr, i32, i32, double, double, ptr, i32, i32, ptr, ptr, i32, [13 x ptr], ptr, ptr, ptr, ptr, ptr, ptr, ptr, ptr, ptr, i32, i32, double, i32, i32, i32, i32, i32, double, double, double, double, double, double, double, double, [14 x double], [6 x double], [13 x double], double, double, double, double, double, double, double, i32, double, i32, i64, i32, i32, i32, double, double, double, double, double, double, double, double, double, double, double, double, i64, i32, i64, i64, i64, i64, i64, i64, i64, i32, double, double, double, i64, i64, i64, i64, ptr, i32, ptr, i32, ptr, ptr, ptr, ptr, ptr, i64, double, i32, i64, double, double, double, i32, double, i32, i32, i32, i32, i32, ptr, i64, i32, [6 x [4 x double]], i32, i64, ptr, i32, ptr, ptr, double, double, double, ptr, ptr, ptr, double, double, i32, i32, i64, ptr, i32, ptr, i32, i32, [13 x double], [13 x double], [13 x ptr], i32 }

@.str = private unnamed_addr constant [116 x i8] c"generated/home/dtcxzyw/WorkSpace/Projects/compilers/llvm-opt-benchmark/bench/sundials/sundials/src/cvode/cvode_io.c\00", align 1
@.str.1 = private unnamed_addr constant [26 x i8] c"cvode_mem = NULL illegal.\00", align 1
@__func__.CVodeGetNonlinSolvStats = private unnamed_addr constant [24 x i8] c"CVodeGetNonlinSolvStats\00", align 1

; Function Attrs: nounwind uwtable
define i32 @CVodeGetNonlinSolvStats(ptr noundef %0, ptr noundef %1, ptr noundef %2) #0 {
  %4 = alloca i32, align 4
  %5 = alloca ptr, align 8
  %6 = alloca ptr, align 8
  %7 = alloca ptr, align 8
  %8 = alloca ptr, align 8
  store ptr %0, ptr %5, align 8
  store ptr %1, ptr %6, align 8
  store ptr %2, ptr %7, align 8
  %9 = load ptr, ptr %5, align 8
  %10 = icmp eq ptr %9, null
  br i1 %10, label %11, label %12

11:                                               ; preds = %3
  call void (ptr, i32, i32, ptr, ptr, ptr, ...) @cvProcessError(ptr noundef null, i32 noundef -21, i32 noundef 1575, ptr noundef @__func__.CVodeGetNonlinSolvStats, ptr noundef @.str, ptr noundef @.str.1)
  store i32 -21, ptr %4, align 4
  br label %22

12:                                               ; preds = %3
  %13 = load ptr, ptr %5, align 8
  store ptr %13, ptr %8, align 8
  %14 = load ptr, ptr %8, align 8
  %15 = getelementptr inbounds %struct.CVodeMemRec, ptr %14, i32 0, i32 74
  %16 = load i64, ptr %15, align 8
  %17 = load ptr, ptr %6, align 8
  store i64 %16, ptr %17, align 8
  %18 = load ptr, ptr %8, align 8
  %19 = getelementptr inbounds %struct.CVodeMemRec, ptr %18, i32 0, i32 75
  %20 = load i64, ptr %19, align 8
  %21 = load ptr, ptr %7, align 8
  store i64 %20, ptr %21, align 8
  store i32 0, ptr %4, align 4
  br label %22

22:                                               ; preds = %12, %11
  %23 = load i32, ptr %4, align 4
  ret i32 %23
}